#include <math.h>
#include <stdio.h>
#include <stdlib.h>
#include <string.h>

int main()
{
	int n;
	char a;//[300];
	scanf("%d",&n);
	scanf("%c", &a);
	while (n--)
	{
		while (1)
		{
			scanf("%c", &a);
			if(a=='A')
				printf("T");
			if(a=='T')
				printf("A");
			if(a=='C')
				printf("G");
			if(a=='G')
				printf("C");
			if (a=='\n') {
				printf("\n");
				break;
			}
		}
		//memset(a, 0, sizeof(a)); 
	}
	return 0;
}