; ModuleID = '33/2381.c'
source_filename = "33/2381.c"
target datalayout = "e-m:e-p270:32:32-p271:32:32-p272:64:64-i64:64-f80:128-n8:16:32:64-S128"
target triple = "x86_64-pc-linux-gnu"

@.str = private unnamed_addr constant [3 x i8] c"%d\00", align 1
@.str.1 = private unnamed_addr constant [3 x i8] c"%c\00", align 1
@.str.2 = private unnamed_addr constant [2 x i8] c"T\00", align 1
@.str.3 = private unnamed_addr constant [2 x i8] c"A\00", align 1
@.str.4 = private unnamed_addr constant [2 x i8] c"G\00", align 1
@.str.5 = private unnamed_addr constant [2 x i8] c"C\00", align 1
@.str.6 = private unnamed_addr constant [2 x i8] c"\0A\00", align 1

; Function Attrs: noinline nounwind uwtable
define dso_local i32 @main() #0 {
  %1 = alloca i32, align 4
  %2 = alloca i32, align 4
  %3 = alloca i8, align 1
  store i32 0, i32* %1, align 4
  %4 = call i32 (i8*, ...) @__isoc99_scanf(i8* getelementptr inbounds ([3 x i8], [3 x i8]* @.str, i64 0, i64 0), i32* %2)
  %5 = call i32 (i8*, ...) @__isoc99_scanf(i8* getelementptr inbounds ([3 x i8], [3 x i8]* @.str.1, i64 0, i64 0), i8* %3)
  br label %6

6:                                                ; preds = %43, %0
  %7 = load i32, i32* %2, align 4
  %8 = add nsw i32 %7, -1
  store i32 %8, i32* %2, align 4
  %9 = icmp ne i32 %7, 0
  br i1 %9, label %10, label %44

10:                                               ; preds = %6
  br label %11

11:                                               ; preds = %10, %42
  %12 = call i32 (i8*, ...) @__isoc99_scanf(i8* getelementptr inbounds ([3 x i8], [3 x i8]* @.str.1, i64 0, i64 0), i8* %3)
  %13 = load i8, i8* %3, align 1
  %14 = sext i8 %13 to i32
  %15 = icmp eq i32 %14, 65
  br i1 %15, label %16, label %18

16:                                               ; preds = %11
  %17 = call i32 (i8*, ...) @printf(i8* getelementptr inbounds ([2 x i8], [2 x i8]* @.str.2, i64 0, i64 0))
  br label %18

18:                                               ; preds = %16, %11
  %19 = load i8, i8* %3, align 1
  %20 = sext i8 %19 to i32
  %21 = icmp eq i32 %20, 84
  br i1 %21, label %22, label %24

22:                                               ; preds = %18
  %23 = call i32 (i8*, ...) @printf(i8* getelementptr inbounds ([2 x i8], [2 x i8]* @.str.3, i64 0, i64 0))
  br label %24

24:                                               ; preds = %22, %18
  %25 = load i8, i8* %3, align 1
  %26 = sext i8 %25 to i32
  %27 = icmp eq i32 %26, 67
  br i1 %27, label %28, label %30

28:                                               ; preds = %24
  %29 = call i32 (i8*, ...) @printf(i8* getelementptr inbounds ([2 x i8], [2 x i8]* @.str.4, i64 0, i64 0))
  br label %30

30:                                               ; preds = %28, %24
  %31 = load i8, i8* %3, align 1
  %32 = sext i8 %31 to i32
  %33 = icmp eq i32 %32, 71
  br i1 %33, label %34, label %36

34:                                               ; preds = %30
  %35 = call i32 (i8*, ...) @printf(i8* getelementptr inbounds ([2 x i8], [2 x i8]* @.str.5, i64 0, i64 0))
  br label %36

36:                                               ; preds = %34, %30
  %37 = load i8, i8* %3, align 1
  %38 = sext i8 %37 to i32
  %39 = icmp eq i32 %38, 10
  br i1 %39, label %40, label %42

40:                                               ; preds = %36
  %41 = call i32 (i8*, ...) @printf(i8* getelementptr inbounds ([2 x i8], [2 x i8]* @.str.6, i64 0, i64 0))
  br label %43

42:                                               ; preds = %36
  br label %11

43:                                               ; preds = %40
  br label %6

44:                                               ; preds = %6
  ret i32 0
}

declare dso_local i32 @__isoc99_scanf(i8*, ...) #1

declare dso_local i32 @printf(i8*, ...) #1


!llvm.module.flags = !{!0}
!llvm.ident = !{!1}

!0 = !{i32 1, !"wchar_size", i32 4}
!1 = !{!"clang version 10.0.0-4ubuntu1 "}
